target datalayout = "e-m:e-p270:32:32-p271:32:32-p272:64:64-i64:64-i128:128-f80:128-n8:16:32:64-S128"
target triple = "x86_64-pc-linux-gnu"

@libctx = internal global ptr null, align 8
@.str.6 = private unnamed_addr constant [37 x i8] c"../openssl/test/provider_pkey_test.c\00", align 1
@.str.7 = private unnamed_addr constant [34 x i8] c"fake_rsa = fake_rsa_start(libctx)\00", align 1
@.str.8 = private unnamed_addr constant [46 x i8] c"deflt = OSSL_PROVIDER_load(libctx, \22default\22)\00", align 1
@.str.9 = private unnamed_addr constant [8 x i8] c"default\00", align 1
@.str.14 = private unnamed_addr constant [19 x i8] c"?provider=fake-rsa\00", align 1
@.str.49 = private unnamed_addr constant [60 x i8] c"loader = OSSL_STORE_LOADER_fetch(libctx, \22fake_rsa\22, propq)\00", align 1
@.str.50 = private unnamed_addr constant [9 x i8] c"fake_rsa\00", align 1
@.str.57 = private unnamed_addr constant [44 x i8] c"ui_method= UI_create_method(\22PW Callbacks\22)\00", align 1
@.str.58 = private unnamed_addr constant [13 x i8] c"PW Callbacks\00", align 1
@.str.59 = private unnamed_addr constant [98 x i8] c"ctx = OSSL_STORE_open_ex(\22fake_rsa:openpwtest\22, libctx, propq, ui_method, NULL, NULL, NULL, NULL)\00", align 1
@.str.60 = private unnamed_addr constant [20 x i8] c"fake_rsa:openpwtest\00", align 1
@.str.61 = private unnamed_addr constant [93 x i8] c"ctx = OSSL_STORE_open_ex(\22fake_rsa:openpwtest\22, libctx, propq, NULL, NULL, NULL, NULL, NULL)\00", align 1

; Function Attrs: nounwind uwtable
define internal i32 @test_pkey_store_open_ex() #0 {
  %1 = alloca ptr, align 8
  %2 = alloca ptr, align 8
  %3 = alloca i32, align 4
  %4 = alloca ptr, align 8
  %5 = alloca ptr, align 8
  %6 = alloca ptr, align 8
  %7 = alloca ptr, align 8
  %8 = alloca ptr, align 8
  call void @llvm.lifetime.start.p0(i64 8, ptr %1) #3
  store ptr null, ptr %1, align 8, !tbaa !9
  call void @llvm.lifetime.start.p0(i64 8, ptr %2) #3
  store ptr null, ptr %2, align 8, !tbaa !9
  call void @llvm.lifetime.start.p0(i64 4, ptr %3) #3
  store i32 0, ptr %3, align 4, !tbaa !11
  call void @llvm.lifetime.start.p0(i64 8, ptr %4) #3
  store ptr null, ptr %4, align 8, !tbaa !13
  call void @llvm.lifetime.start.p0(i64 8, ptr %5) #3
  store ptr null, ptr %5, align 8, !tbaa !25
  call void @llvm.lifetime.start.p0(i64 8, ptr %6) #3
  store ptr null, ptr %6, align 8, !tbaa !27
  call void @llvm.lifetime.start.p0(i64 8, ptr %7) #3
  store ptr @.str.14, ptr %7, align 8, !tbaa !21
  call void @llvm.lifetime.start.p0(i64 8, ptr %8) #3
  store ptr null, ptr %8, align 8, !tbaa !34
  %9 = load ptr, ptr @libctx, align 8, !tbaa !4
  %10 = call ptr @OSSL_PROVIDER_load(ptr noundef %9, ptr noundef @.str.9)
  store ptr %10, ptr %1, align 8, !tbaa !9
  %11 = call i32 @test_ptr(ptr noundef @.str.6, i32 noundef 387, ptr noundef @.str.8, ptr noundef %10)
  %12 = icmp ne i32 %11, 0
  br i1 %12, label %14, label %13

13:                                               ; preds = %0
  br label %56

14:                                               ; preds = %0
  %15 = load ptr, ptr @libctx, align 8, !tbaa !4
  %16 = call ptr @fake_rsa_start(ptr noundef %15)
  store ptr %16, ptr %2, align 8, !tbaa !9
  %17 = call i32 @test_ptr(ptr noundef @.str.6, i32 noundef 390, ptr noundef @.str.7, ptr noundef %16)
  %18 = icmp ne i32 %17, 0
  br i1 %18, label %20, label %19

19:                                               ; preds = %14
  br label %56

20:                                               ; preds = %14
  %21 = load ptr, ptr @libctx, align 8, !tbaa !4
  %22 = load ptr, ptr %7, align 8, !tbaa !21
  %23 = call ptr @OSSL_STORE_LOADER_fetch(ptr noundef %21, ptr noundef @.str.50, ptr noundef %22)
  store ptr %23, ptr %5, align 8, !tbaa !25
  %24 = call i32 @test_ptr(ptr noundef @.str.6, i32 noundef 394, ptr noundef @.str.49, ptr noundef %23)
  %25 = icmp ne i32 %24, 0
  br i1 %25, label %27, label %26

26:                                               ; preds = %20
  br label %56

27:                                               ; preds = %20
  %28 = load ptr, ptr %5, align 8, !tbaa !25
  call void @OSSL_STORE_LOADER_free(ptr noundef %28)
  %29 = call ptr @UI_create_method(ptr noundef @.str.58)
  store ptr %29, ptr %8, align 8, !tbaa !34
  %30 = call i32 @test_ptr(ptr noundef @.str.6, i32 noundef 399, ptr noundef @.str.57, ptr noundef %29)
  %31 = icmp ne i32 %30, 0
  br i1 %31, label %33, label %32

32:                                               ; preds = %27
  br label %56

33:                                               ; preds = %27
  %34 = load ptr, ptr %8, align 8, !tbaa !34
  %35 = call i32 @UI_method_set_reader(ptr noundef %34, ptr noundef @fake_pw_read_string)
  %36 = icmp ne i32 %35, 0
  br i1 %36, label %37, label %38

37:                                               ; preds = %33
  br label %56

38:                                               ; preds = %33
  %39 = load ptr, ptr @libctx, align 8, !tbaa !4
  %40 = load ptr, ptr %7, align 8, !tbaa !21
  %41 = load ptr, ptr %8, align 8, !tbaa !34
  %42 = call ptr @OSSL_STORE_open_ex(ptr noundef @.str.60, ptr noundef %39, ptr noundef %40, ptr noundef %41, ptr noundef null, ptr noundef null, ptr noundef null, ptr noundef null)
  store ptr %42, ptr %6, align 8, !tbaa !27
  %43 = call i32 @test_ptr(ptr noundef @.str.6, i32 noundef 406, ptr noundef @.str.59, ptr noundef %42)
  %44 = icmp ne i32 %43, 0
  br i1 %44, label %46, label %45

45:                                               ; preds = %38
  br label %56

46:                                               ; preds = %38
  %47 = load ptr, ptr %6, align 8, !tbaa !27
  %48 = call i32 @OSSL_STORE_close(ptr noundef %47)
  %49 = load ptr, ptr @libctx, align 8, !tbaa !4
  %50 = load ptr, ptr %7, align 8, !tbaa !21
  %51 = call ptr @OSSL_STORE_open_ex(ptr noundef @.str.60, ptr noundef %49, ptr noundef %50, ptr noundef null, ptr noundef null, ptr noundef null, ptr noundef null, ptr noundef null)
  store ptr %51, ptr %6, align 8, !tbaa !27
  %52 = call i32 @test_ptr_null(ptr noundef @.str.6, i32 noundef 413, ptr noundef @.str.61, ptr noundef %51)
  %53 = icmp ne i32 %52, 0
  br i1 %53, label %55, label %54

54:                                               ; preds = %46
  br label %56

55:                                               ; preds = %46
  store i32 1, ptr %3, align 4, !tbaa !11
  br label %56

56:                                               ; preds = %55, %54, %45, %37, %32, %26, %19, %13
  %57 = load ptr, ptr %8, align 8, !tbaa !34
  call void @UI_destroy_method(ptr noundef %57)
  %58 = load ptr, ptr %2, align 8, !tbaa !9
  call void @fake_rsa_finish(ptr noundef %58)
  %59 = load ptr, ptr %1, align 8, !tbaa !9
  %60 = call i32 @OSSL_PROVIDER_unload(ptr noundef %59)
  %61 = load ptr, ptr %6, align 8, !tbaa !27
  %62 = call i32 @OSSL_STORE_close(ptr noundef %61)
  %63 = load ptr, ptr %4, align 8, !tbaa !13
  call void @EVP_PKEY_free(ptr noundef %63)
  %64 = load i32, ptr %3, align 4, !tbaa !11
  call void @llvm.lifetime.end.p0(i64 8, ptr %8) #3
  call void @llvm.lifetime.end.p0(i64 8, ptr %7) #3
  call void @llvm.lifetime.end.p0(i64 8, ptr %6) #3
  call void @llvm.lifetime.end.p0(i64 8, ptr %5) #3
  call void @llvm.lifetime.end.p0(i64 8, ptr %4) #3
  call void @llvm.lifetime.end.p0(i64 4, ptr %3) #3
  call void @llvm.lifetime.end.p0(i64 8, ptr %2) #3
  call void @llvm.lifetime.end.p0(i64 8, ptr %1) #3
  ret i32 %64
}