; Function Attrs: nounwind uwtable
define internal range(i32 0, 2) i32 @test_pkey_store_open_ex() #0 {
  %1 = load ptr, ptr @libctx, align 8, !tbaa !4
  %2 = tail call ptr @OSSL_PROVIDER_load(ptr noundef %1, ptr noundef nonnull @.str.9) #3
  %3 = tail call i32 @test_ptr(ptr noundef nonnull @.str.6, i32 noundef 387, ptr noundef nonnull @.str.8, ptr noundef %2) #3
  %.not = icmp eq i32 %3, 0
  br i1 %.not, label %26, label %4

4:                                                ; preds = %0
  %5 = load ptr, ptr @libctx, align 8, !tbaa !4
  %6 = tail call ptr @fake_rsa_start(ptr noundef %5) #3
  %7 = tail call i32 @test_ptr(ptr noundef nonnull @.str.6, i32 noundef 390, ptr noundef nonnull @.str.7, ptr noundef %6) #3
  %.not15 = icmp eq i32 %7, 0
  br i1 %.not15, label %26, label %8

8:                                                ; preds = %4
  %9 = load ptr, ptr @libctx, align 8, !tbaa !4
  %10 = tail call ptr @OSSL_STORE_LOADER_fetch(ptr noundef %9, ptr noundef nonnull @.str.50, ptr noundef nonnull @.str.14) #3
  %11 = tail call i32 @test_ptr(ptr noundef nonnull @.str.6, i32 noundef 394, ptr noundef nonnull @.str.49, ptr noundef %10) #3
  %.not16 = icmp eq i32 %11, 0
  br i1 %.not16, label %26, label %12

12:                                               ; preds = %8
  tail call void @OSSL_STORE_LOADER_free(ptr noundef %10) #3
  %13 = tail call ptr @UI_create_method(ptr noundef nonnull @.str.58) #3
  %14 = tail call i32 @test_ptr(ptr noundef nonnull @.str.6, i32 noundef 399, ptr noundef nonnull @.str.57, ptr noundef %13) #3
  %.not17 = icmp eq i32 %14, 0
  br i1 %.not17, label %26, label %15

15:                                               ; preds = %12
  %16 = tail call i32 @UI_method_set_reader(ptr noundef %13, ptr noundef nonnull @fake_pw_read_string) #3
  %.not18 = icmp eq i32 %16, 0
  br i1 %.not18, label %17, label %26

17:                                               ; preds = %15
  %18 = load ptr, ptr @libctx, align 8, !tbaa !4
  %19 = tail call ptr @OSSL_STORE_open_ex(ptr noundef nonnull @.str.60, ptr noundef %18, ptr noundef nonnull @.str.14, ptr noundef %13, ptr noundef null, ptr noundef null, ptr noundef null, ptr noundef null) #3
  %20 = tail call i32 @test_ptr(ptr noundef nonnull @.str.6, i32 noundef 406, ptr noundef nonnull @.str.59, ptr noundef %19) #3
  %.not19 = icmp eq i32 %20, 0
  br i1 %.not19, label %26, label %21

21:                                               ; preds = %17
  %22 = tail call i32 @OSSL_STORE_close(ptr noundef %19) #3
  %23 = load ptr, ptr @libctx, align 8, !tbaa !4
  %24 = tail call ptr @OSSL_STORE_open_ex(ptr noundef nonnull @.str.60, ptr noundef %23, ptr noundef nonnull @.str.14, ptr noundef null, ptr noundef null, ptr noundef null, ptr noundef null, ptr noundef null) #3
  %25 = tail call i32 @test_ptr_null(ptr noundef nonnull @.str.6, i32 noundef 413, ptr noundef nonnull @.str.61, ptr noundef %24) #3
  %.not20 = icmp ne i32 %25, 0
  %spec.select = zext i1 %.not20 to i32
  br label %26

26:                                               ; preds = %21, %17, %15, %12, %8, %4, %0
  %.014 = phi i32 [ 0, %15 ], [ 0, %17 ], [ 0, %12 ], [ 0, %8 ], [ 0, %4 ], [ 0, %0 ], [ %spec.select, %21 ]
  %.013 = phi ptr [ %6, %15 ], [ %6, %17 ], [ %6, %12 ], [ %6, %8 ], [ %6, %4 ], [ null, %0 ], [ %6, %21 ]
  %.012 = phi ptr [ null, %15 ], [ %19, %17 ], [ null, %12 ], [ null, %8 ], [ null, %4 ], [ null, %0 ], [ %24, %21 ]
  %.0 = phi ptr [ %13, %15 ], [ %13, %17 ], [ %13, %12 ], [ null, %8 ], [ null, %4 ], [ null, %0 ], [ %13, %21 ]
  tail call void @UI_destroy_method(ptr noundef %.0) #3
  tail call void @fake_rsa_finish(ptr noundef %.013) #3
  %27 = tail call i32 @OSSL_PROVIDER_unload(ptr noundef %2) #3
  %28 = tail call i32 @OSSL_STORE_close(ptr noundef %.012) #3
  tail call void @EVP_PKEY_free(ptr noundef null) #3
  ret i32 %.014
}